Certificate:
    Data:
        Version: 1 (0x0)
        Serial Number: 1 (0x1)
        Signature Algorithm: sha256WithRSAEncryption
        Issuer: C=CN, O=JDXJ, CN=jdxj.org
        Validity
            Not Before: Mar 14 15:03:01 2023 GMT
            Not After : Mar 11 15:03:01 2033 GMT
        Subject: C=CN, O=JDXJ, CN=jdxj.org
        Subject Public Key Info:
            Public Key Algorithm: rsaEncryption
                Public-Key: (4096 bit)
                Modulus:
                    00:ac:60:55:b8:9d:ce:3f:cc:d3:fd:1a:6c:75:e7:
                    bb:1d:dd:26:6b:19:98:41:8c:3c:db:b8:31:e8:43:
                    1c:0f:a8:f2:4a:23:2f:49:da:ee:40:41:5d:58:0b:
                    84:fb:d3:83:c2:97:03:3c:1c:6d:79:23:4d:28:97:
                    8f:bc:5f:7f:f9:63:fa:03:73:f9:70:2d:b3:f0:0c:
                    ad:ae:ef:f4:94:21:3f:6d:14:41:02:3d:c3:13:c2:
                    8f:0b:3f:15:26:b3:a0:79:4e:94:5e:1a:be:85:cc:
                    8d:52:a8:55:8d:7a:e2:09:2d:4b:80:4f:cd:f5:4f:
                    c5:d1:0a:7d:b7:89:bf:17:34:1a:ed:10:6d:a5:be:
                    43:81:40:98:7b:1a:c1:9b:62:8e:52:c6:2a:4f:72:
                    cf:94:75:a4:7f:ba:46:4a:d1:03:e2:b4:32:9c:8a:
                    01:a2:cc:9a:42:be:43:2a:47:b9:07:99:64:fc:4d:
                    1c:5e:4c:92:2c:05:68:8a:e5:8b:d4:25:e4:37:ae:
                    11:8e:e1:52:81:1f:81:6f:dd:92:44:a2:eb:f9:65:
                    5f:7c:56:91:d3:bc:17:e6:81:1d:9a:43:2b:e9:7f:
                    fd:13:4d:83:ce:d6:6d:1d:2b:cd:4a:de:48:99:84:
                    0f:b2:d8:01:45:40:ae:9d:ce:0d:51:ac:c8:4a:32:
                    11:f6:1e:7a:62:ff:3e:01:39:7f:f1:89:2e:fa:fb:
                    c3:74:c2:08:79:2c:db:19:6b:0c:f0:71:d7:09:a6:
                    e0:e3:38:3d:a8:85:7f:c2:94:3e:30:da:40:45:95:
                    0a:84:2f:18:65:7b:6e:0d:a0:48:00:4f:30:ad:9c:
                    c7:e9:d9:b9:45:df:e9:9d:4b:dc:16:2e:c3:fd:86:
                    03:59:a9:90:d8:62:1d:6f:0f:13:0a:e2:0b:d7:9f:
                    9e:b8:69:e1:7e:b4:22:27:4b:34:8c:24:96:d8:52:
                    1f:f0:f3:56:a0:fb:db:26:61:0a:1f:58:96:15:41:
                    11:ee:1f:4d:c1:46:04:d0:01:74:89:a3:e7:53:f5:
                    49:07:a6:d2:de:3b:a6:7d:c6:a0:a2:53:32:8a:33:
                    ff:55:7e:92:fb:63:cf:af:8a:ff:a4:30:38:e5:c3:
                    4b:2e:e9:d4:0b:28:9d:1d:f1:c0:1f:3d:f6:fd:4c:
                    a7:0f:8a:91:50:53:0e:9a:d2:5c:2f:af:b9:2a:a4:
                    a5:64:da:5a:83:72:38:2e:76:86:57:65:55:cd:ed:
                    1a:56:5a:b2:42:31:79:b2:ea:b1:54:40:76:06:d5:
                    74:9a:d2:16:f8:d4:12:32:11:34:29:1c:83:0a:aa:
                    e3:2e:e3:9d:36:6c:38:9a:87:0d:c3:21:d8:10:5b:
                    2a:6e:d5
                Exponent: 65537 (0x10001)
    Signature Algorithm: sha256WithRSAEncryption
    Signature Value:
        2d:3d:dd:da:6c:06:59:75:a3:ea:fe:b7:a7:47:88:92:ea:93:
        6f:70:e2:a8:4d:5f:01:95:47:e9:1a:00:ba:df:a6:23:c0:d9:
        bd:9f:5f:9e:f9:a4:e0:43:3b:c6:d5:03:eb:1d:2f:3b:81:f8:
        fa:32:b2:11:dc:3a:cd:88:37:ea:ff:96:b5:b5:02:e3:b0:eb:
        ea:a1:ab:90:3b:9d:63:79:43:f3:78:42:9a:49:3a:21:94:43:
        f1:1e:03:9d:f9:f2:4c:5d:37:d1:84:97:f3:f9:62:18:f1:67:
        e3:53:ee:7c:e5:75:2f:7c:26:ef:04:09:21:37:e2:46:6a:22:
        3b:a2:a7:68:33:71:15:ee:3b:bb:29:01:28:38:38:1f:24:4b:
        36:03:e2:79:f5:ee:05:b5:02:b4:eb:16:18:e6:a1:c7:c7:96:
        bd:6e:43:0f:a1:7a:cc:dc:2b:78:a0:1d:98:b9:52:2d:00:d5:
        fc:36:31:78:79:70:c0:44:c1:10:b7:d3:f4:26:13:02:88:09:
        18:a3:04:58:db:0c:cc:95:f9:41:8a:98:d4:38:b1:15:9b:30:
        ff:c0:dd:5f:28:76:ab:a1:93:79:61:ce:18:b4:c8:dc:bf:6e:
        42:d0:e4:58:60:d1:57:0e:88:07:62:6e:de:e9:ae:ad:49:04:
        0e:11:0c:9c:10:52:72:1f:84:74:a1:bc:50:7b:63:d9:d8:07:
        24:f9:fb:d6:43:e9:f3:0d:56:e4:cf:e8:2b:b7:9b:57:4c:31:
        1d:f6:55:47:ea:5c:94:26:98:29:bc:21:09:63:92:97:a7:f9:
        20:df:a9:bf:2d:12:a1:03:90:38:cd:26:78:d0:1c:d2:50:e2:
        19:20:12:43:6c:36:b4:01:83:d8:3a:18:05:9d:88:4c:39:f5:
        92:8e:f1:a8:6e:ba:39:33:a6:67:56:82:b7:c5:dc:10:fa:f6:
        45:7f:1b:c8:5b:12:7d:38:b6:a3:4f:73:a4:30:53:1a:92:79:
        ba:2f:62:9e:3a:6a:0b:56:38:99:53:bb:5d:51:40:40:d1:1b:
        9c:ef:d1:e2:88:f8:62:fb:08:71:13:75:67:f9:2b:f4:3e:bd:
        83:53:62:29:2e:cd:da:0f:1a:25:d2:33:04:bf:33:28:c3:fb:
        6b:90:41:56:4e:6b:eb:30:c6:91:fb:dc:f9:a4:91:74:33:63:
        44:1d:b7:64:1a:ad:63:9d:6d:b7:95:2a:82:87:ba:77:3b:c7:
        40:ab:00:1b:69:bd:cd:5e:97:5c:83:8d:31:2a:09:de:2a:9e:
        95:c4:4c:71:8c:cd:5d:41:cf:60:2d:f1:19:ca:96:07:e5:2e:
        b4:58:d0:ec:95:a4:19:12
-----BEGIN CERTIFICATE-----
MIIE0jCCAroCAQEwDQYJKoZIhvcNAQELBQAwLzELMAkGA1UEBhMCQ04xDTALBgNV
BAoMBEpEWEoxETAPBgNVBAMMCGpkeGoub3JnMB4XDTIzMDMxNDE1MDMwMVoXDTMz
MDMxMTE1MDMwMVowLzELMAkGA1UEBhMCQ04xDTALBgNVBAoMBEpEWEoxETAPBgNV
BAMMCGpkeGoub3JnMIICIjANBgkqhkiG9w0BAQEFAAOCAg8AMIICCgKCAgEArGBV
uJ3OP8zT/Rpsdee7Hd0maxmYQYw827gx6EMcD6jySiMvSdruQEFdWAuE+9ODwpcD
PBxteSNNKJePvF9/+WP6A3P5cC2z8Aytru/0lCE/bRRBAj3DE8KPCz8VJrOgeU6U
Xhq+hcyNUqhVjXriCS1LgE/N9U/F0Qp9t4m/FzQa7RBtpb5DgUCYexrBm2KOUsYq
T3LPlHWkf7pGStED4rQynIoBosyaQr5DKke5B5lk/E0cXkySLAVoiuWL1CXkN64R
juFSgR+Bb92SRKLr+WVffFaR07wX5oEdmkMr6X/9E02DztZtHSvNSt5ImYQPstgB
RUCunc4NUazISjIR9h56Yv8+ATl/8Yku+vvDdMIIeSzbGWsM8HHXCabg4zg9qIV/
wpQ+MNpARZUKhC8YZXtuDaBIAE8wrZzH6dm5Rd/pnUvcFi7D/YYDWamQ2GIdbw8T
CuIL15+euGnhfrQiJ0s0jCSW2FIf8PNWoPvbJmEKH1iWFUER7h9NwUYE0AF0iaPn
U/VJB6bS3jumfcagolMyijP/VX6S+2PPr4r/pDA45cNLLunUCyidHfHAHz32/Uyn
D4qRUFMOmtJcL6+5KqSlZNpag3I4LnaGV2VVze0aVlqyQjF5suqxVEB2BtV0mtIW
+NQSMhE0KRyDCqrjLuOdNmw4mocNwyHYEFsqbtUCAwEAATANBgkqhkiG9w0BAQsF
AAOCAgEALT3d2mwGWXWj6v63p0eIkuqTb3DiqE1fAZVH6RoAut+mI8DZvZ9fnvmk
4EM7xtUD6x0vO4H4+jKyEdw6zYg36v+WtbUC47Dr6qGrkDudY3lD83hCmkk6IZRD
8R4DnfnyTF030YSX8/liGPFn41PufOV1L3wm7wQJITfiRmoiO6KnaDNxFe47uykB
KDg4HyRLNgPiefXuBbUCtOsWGOahx8eWvW5DD6F6zNwreKAdmLlSLQDV/DYxeHlw
wETBELfT9CYTAogJGKMEWNsMzJX5QYqY1DixFZsw/8DdXyh2q6GTeWHOGLTI3L9u
QtDkWGDRVw6IB2Ju3umurUkEDhEMnBBSch+EdKG8UHtj2dgHJPn71kPp8w1W5M/o
K7ebV0wxHfZVR+pclCaYKbwhCWOSl6f5IN+pvy0SoQOQOM0meNAc0lDiGSASQ2w2
tAGD2DoYBZ2ITDn1ko7xqG66OTOmZ1aCt8XcEPr2RX8byFsSfTi2o09zpDBTGpJ5
ui9injpqC1Y4mVO7XVFAQNEbnO/R4oj4YvsIcRN1Z/kr9D69g1NiKS7N2g8aJdIz
BL8zKMP7a5BBVk5r6zDGkfvc+aSRdDNjRB23ZBqtY51tt5Uqgoe6dzvHQKsAG2m9
zV6XXIONMSoJ3iqelcRMcYzNXUHPYC3xGcqWB+UutFjQ7JWkGRI=
-----END CERTIFICATE-----
